; Function Attrs: mustprogress nofree norecurse nosync nounwind willreturn memory(read, argmem: readwrite, inaccessiblemem: none) uwtable
define noundef zeroext i1 @_ZN5draco16SymbolBitDecoder13DecodeNextBitEv(ptr noundef nonnull align 8 captures(none) dereferenceable(24) %0) local_unnamed_addr #4 align 2 {
  %2 = getelementptr inbounds nuw i8, ptr %0, i64 8
  %3 = load ptr, ptr %2, align 8, !tbaa !19
  %4 = getelementptr inbounds i8, ptr %3, i64 -4
  %5 = load i32, ptr %4, align 4, !tbaa !20
  store ptr %4, ptr %2, align 8, !tbaa !15
  %6 = and i32 %5, 1
  %7 = icmp ne i32 %6, 0
  ret i1 %7
}